; ModuleID = '21/1978.c'
source_filename = "21/1978.c"
target datalayout = "e-m:e-p270:32:32-p271:32:32-p272:64:64-i64:64-f80:128-n8:16:32:64-S128"
target triple = "x86_64-pc-linux-gnu"

@.str = private unnamed_addr constant [3 x i8] c"%d\00", align 1
@.str.1 = private unnamed_addr constant [4 x i8] c"%d\0A\00", align 1
@.str.2 = private unnamed_addr constant [7 x i8] c"%d,%d\0A\00", align 1

; Function Attrs: noinline nounwind uwtable
define dso_local i32 @main() #0 {
  %1 = alloca i32, align 4
  %2 = alloca i32, align 4
  %3 = alloca [300 x i32], align 16
  %4 = alloca i32, align 4
  %5 = alloca i32, align 4
  %6 = alloca i32, align 4
  %7 = alloca [2 x i32], align 4
  %8 = alloca i32, align 4
  %9 = alloca float, align 4
  %10 = alloca [300 x float], align 16
  %11 = alloca float, align 4
  store i32 0, i32* %1, align 4
  store i32 0, i32* %5, align 4
  store i32 0, i32* %6, align 4
  store i32 0, i32* %8, align 4
  %12 = call i32 (i8*, ...) @__isoc99_scanf(i8* getelementptr inbounds ([3 x i8], [3 x i8]* @.str, i64 0, i64 0), i32* %2)
  store i32 0, i32* %4, align 4
  br label %13

13:                                               ; preds = %28, %0
  %14 = load i32, i32* %4, align 4
  %15 = load i32, i32* %2, align 4
  %16 = icmp slt i32 %14, %15
  br i1 %16, label %17, label %31

17:                                               ; preds = %13
  %18 = load i32, i32* %4, align 4
  %19 = sext i32 %18 to i64
  %20 = getelementptr inbounds [300 x i32], [300 x i32]* %3, i64 0, i64 %19
  %21 = call i32 (i8*, ...) @__isoc99_scanf(i8* getelementptr inbounds ([3 x i8], [3 x i8]* @.str, i64 0, i64 0), i32* %20)
  %22 = load i32, i32* %5, align 4
  %23 = load i32, i32* %4, align 4
  %24 = sext i32 %23 to i64
  %25 = getelementptr inbounds [300 x i32], [300 x i32]* %3, i64 0, i64 %24
  %26 = load i32, i32* %25, align 4
  %27 = add nsw i32 %22, %26
  store i32 %27, i32* %5, align 4
  br label %28

28:                                               ; preds = %17
  %29 = load i32, i32* %4, align 4
  %30 = add nsw i32 %29, 1
  store i32 %30, i32* %4, align 4
  br label %13

31:                                               ; preds = %13
  %32 = load i32, i32* %5, align 4
  %33 = sitofp i32 %32 to float
  %34 = load i32, i32* %2, align 4
  %35 = sitofp i32 %34 to float
  %36 = fdiv float %33, %35
  store float %36, float* %9, align 4
  store i32 0, i32* %4, align 4
  br label %37

37:                                               ; preds = %72, %31
  %38 = load i32, i32* %4, align 4
  %39 = load i32, i32* %2, align 4
  %40 = icmp slt i32 %38, %39
  br i1 %40, label %41, label %75

41:                                               ; preds = %37
  %42 = load i32, i32* %4, align 4
  %43 = sext i32 %42 to i64
  %44 = getelementptr inbounds [300 x i32], [300 x i32]* %3, i64 0, i64 %43
  %45 = load i32, i32* %44, align 4
  %46 = sitofp i32 %45 to float
  %47 = load float, float* %9, align 4
  %48 = fcmp ogt float %46, %47
  br i1 %48, label %49, label %60

49:                                               ; preds = %41
  %50 = load i32, i32* %4, align 4
  %51 = sext i32 %50 to i64
  %52 = getelementptr inbounds [300 x i32], [300 x i32]* %3, i64 0, i64 %51
  %53 = load i32, i32* %52, align 4
  %54 = sitofp i32 %53 to float
  %55 = load float, float* %9, align 4
  %56 = fsub float %54, %55
  %57 = load i32, i32* %4, align 4
  %58 = sext i32 %57 to i64
  %59 = getelementptr inbounds [300 x float], [300 x float]* %10, i64 0, i64 %58
  store float %56, float* %59, align 4
  br label %71

60:                                               ; preds = %41
  %61 = load float, float* %9, align 4
  %62 = load i32, i32* %4, align 4
  %63 = sext i32 %62 to i64
  %64 = getelementptr inbounds [300 x i32], [300 x i32]* %3, i64 0, i64 %63
  %65 = load i32, i32* %64, align 4
  %66 = sitofp i32 %65 to float
  %67 = fsub float %61, %66
  %68 = load i32, i32* %4, align 4
  %69 = sext i32 %68 to i64
  %70 = getelementptr inbounds [300 x float], [300 x float]* %10, i64 0, i64 %69
  store float %67, float* %70, align 4
  br label %71

71:                                               ; preds = %60, %49
  br label %72

72:                                               ; preds = %71
  %73 = load i32, i32* %4, align 4
  %74 = add nsw i32 %73, 1
  store i32 %74, i32* %4, align 4
  br label %37

75:                                               ; preds = %37
  store i32 0, i32* %4, align 4
  br label %76

76:                                               ; preds = %93, %75
  %77 = load i32, i32* %4, align 4
  %78 = load i32, i32* %2, align 4
  %79 = icmp slt i32 %77, %78
  br i1 %79, label %80, label %96

80:                                               ; preds = %76
  %81 = load i32, i32* %4, align 4
  %82 = sext i32 %81 to i64
  %83 = getelementptr inbounds [300 x float], [300 x float]* %10, i64 0, i64 %82
  %84 = load float, float* %83, align 4
  %85 = load float, float* %11, align 4
  %86 = fcmp ogt float %84, %85
  br i1 %86, label %87, label %92

87:                                               ; preds = %80
  %88 = load i32, i32* %4, align 4
  %89 = sext i32 %88 to i64
  %90 = getelementptr inbounds [300 x float], [300 x float]* %10, i64 0, i64 %89
  %91 = load float, float* %90, align 4
  store float %91, float* %11, align 4
  br label %92

92:                                               ; preds = %87, %80
  br label %93

93:                                               ; preds = %92
  %94 = load i32, i32* %4, align 4
  %95 = add nsw i32 %94, 1
  store i32 %95, i32* %4, align 4
  br label %76

96:                                               ; preds = %76
  store i32 0, i32* %4, align 4
  br label %97

97:                                               ; preds = %121, %96
  %98 = load i32, i32* %4, align 4
  %99 = load i32, i32* %2, align 4
  %100 = icmp slt i32 %98, %99
  br i1 %100, label %101, label %124

101:                                              ; preds = %97
  %102 = load i32, i32* %4, align 4
  %103 = sext i32 %102 to i64
  %104 = getelementptr inbounds [300 x float], [300 x float]* %10, i64 0, i64 %103
  %105 = load float, float* %104, align 4
  %106 = load float, float* %11, align 4
  %107 = fcmp oeq float %105, %106
  br i1 %107, label %108, label %120

108:                                              ; preds = %101
  %109 = load i32, i32* %4, align 4
  %110 = sext i32 %109 to i64
  %111 = getelementptr inbounds [300 x i32], [300 x i32]* %3, i64 0, i64 %110
  %112 = load i32, i32* %111, align 4
  %113 = load i32, i32* %8, align 4
  %114 = sext i32 %113 to i64
  %115 = getelementptr inbounds [2 x i32], [2 x i32]* %7, i64 0, i64 %114
  store i32 %112, i32* %115, align 4
  %116 = load i32, i32* %8, align 4
  %117 = add nsw i32 %116, 1
  store i32 %117, i32* %8, align 4
  %118 = load i32, i32* %6, align 4
  %119 = add nsw i32 %118, 1
  store i32 %119, i32* %6, align 4
  br label %120

120:                                              ; preds = %108, %101
  br label %121

121:                                              ; preds = %120
  %122 = load i32, i32* %4, align 4
  %123 = add nsw i32 %122, 1
  store i32 %123, i32* %4, align 4
  br label %97

124:                                              ; preds = %97
  %125 = load i32, i32* %6, align 4
  %126 = icmp eq i32 %125, 1
  br i1 %126, label %127, label %131

127:                                              ; preds = %124
  %128 = getelementptr inbounds [2 x i32], [2 x i32]* %7, i64 0, i64 0
  %129 = load i32, i32* %128, align 4
  %130 = call i32 (i8*, ...) @printf(i8* getelementptr inbounds ([4 x i8], [4 x i8]* @.str.1, i64 0, i64 0), i32 %129)
  br label %137

131:                                              ; preds = %124
  %132 = getelementptr inbounds [2 x i32], [2 x i32]* %7, i64 0, i64 0
  %133 = load i32, i32* %132, align 4
  %134 = getelementptr inbounds [2 x i32], [2 x i32]* %7, i64 0, i64 1
  %135 = load i32, i32* %134, align 4
  %136 = call i32 (i8*, ...) @printf(i8* getelementptr inbounds ([7 x i8], [7 x i8]* @.str.2, i64 0, i64 0), i32 %133, i32 %135)
  br label %137

137:                                              ; preds = %131, %127
  %138 = load i32, i32* %1, align 4
  ret i32 %138
}

declare dso_local i32 @__isoc99_scanf(i8*, ...) #1

declare dso_local i32 @printf(i8*, ...) #1


!llvm.module.flags = !{!0}
!llvm.ident = !{!1}

!0 = !{i32 1, !"wchar_size", i32 4}
!1 = !{!"clang version 10.0.0-4ubuntu1 "}
